target datalayout = "e-m:e-p270:32:32-p271:32:32-p272:64:64-i64:64-i128:128-f80:128-n8:16:32:64-S128"
target triple = "x86_64-pc-linux-gnu"

%class.GCStatInfo = type <{ i64, i64, i64, ptr, ptr, i32, [4 x i8] }>

; Function Attrs: mustprogress nounwind uwtable
define hidden void @_ZN10GCStatInfoD2Ev(ptr noundef nonnull align 8 dereferenceable(44) %0) unnamed_addr #1 align 2 {
  %2 = alloca ptr, align 8
  store ptr %0, ptr %2, align 8
  %3 = load ptr, ptr %2, align 8
  %4 = getelementptr inbounds %class.GCStatInfo, ptr %3, i32 0, i32 3
  %5 = load ptr, ptr %4, align 8
  call void @_Z8FreeHeapPv(ptr noundef %5)
  %6 = getelementptr inbounds %class.GCStatInfo, ptr %3, i32 0, i32 4
  %7 = load ptr, ptr %6, align 8
  call void @_Z8FreeHeapPv(ptr noundef %7)
  ret void
}