; Function Attrs: mustprogress nounwind uwtable
define hidden void @_ZN10GCStatInfoD2Ev(ptr nocapture noundef nonnull readonly align 8 dereferenceable(44) %0) unnamed_addr #2 align 2 {
  %2 = getelementptr inbounds i8, ptr %0, i64 24
  %3 = load ptr, ptr %2, align 8
  tail call void @_Z8FreeHeapPv(ptr noundef %3) #13
  %4 = getelementptr inbounds i8, ptr %0, i64 32
  %5 = load ptr, ptr %4, align 8
  tail call void @_Z8FreeHeapPv(ptr noundef %5) #13
  ret void
}